ccopy_reg
_reconstructor
p1
(cBaseSpacePy.api.BaseSpaceAPI
BaseSpaceAPI
p2
c__builtin__
object
p3
NtRp4
(dp5
S'timeout'
p6
I10
sS'apiClient'
p7
(iBaseSpacePy.api.APIClient
APIClient
p8
(dp9
S'apiServer'
p10
S'https://api.basespace.illumina.com/v1pre3'
p11
sS'apiKey'
p12
V95d8f72161e44c5eb80cfd668284954e
p13
sg6
I10
sbsS'weburl'
p14
S'https://basespace.illumina.com/'
p15
sS'appSessionId'
p16
V0e1ed551268846d0ad5588b99576fb9b
p17
sg10
g11
sS'secret'
p18
S'bcaed1598b3b416cbfa2942d0d6e82b2'
p19
sS'version'
p20
S'v1pre3'
p21
sS'key'
p22
S'667016dde49f452b8e4552549d7aed23'
p23
sb.