ccopy_reg
_reconstructor
p1
(cBaseSpacePy.api.BaseSpaceAPI
BaseSpaceAPI
p2
c__builtin__
object
p3
NtRp4
(dp5
S'timeout'
p6
I10
sS'apiClient'
p7
NsS'weburl'
p8
S'https://basespace.illumina.com/'
p9
sS'appSessionId'
p10
Vd47f93d2f0da439089e5dbca42db9434
p11
sS'apiServer'
p12
S'https://api.basespace.illumina.com/v1pre3'
p13
sS'secret'
p14
S'bcaed1598b3b416cbfa2942d0d6e82b2'
p15
sS'version'
p16
S'v1pre3'
p17
sS'key'
p18
S'667016dde49f452b8e4552549d7aed23'
p19
sb.